target datalayout = "e-m:e-p270:32:32-p271:32:32-p272:64:64-i64:64-i128:128-f80:128-n8:16:32:64-S128"
target triple = "x86_64-pc-linux-gnu"

%struct.lua_State = type { ptr, i8, i8, i8, i8, i16, %union.StkIdRel, ptr, ptr, %union.StkIdRel, %union.StkIdRel, ptr, %union.StkIdRel, ptr, ptr, ptr, %struct.CallInfo, ptr, i64, i32, i32, i32, i32, i32, %struct.anon.3 }
%union.StkIdRel = type { ptr }
%struct.CallInfo = type { %union.StkIdRel, %union.StkIdRel, ptr, ptr, %union.anon, %union.anon.2, i32 }
%union.anon = type { %struct.anon.1 }
%struct.anon.1 = type { ptr, i64, i64 }
%union.anon.2 = type { i32 }
%struct.anon.3 = type { i32, i32 }
%struct.TValue = type { %union.Value, i8 }
%union.Value = type { ptr }
%union.StackValue = type { %struct.TValue }

; Function Attrs: nounwind uwtable
define hidden void @luaD_inctop(ptr noundef %0) #0 {
  %2 = alloca ptr, align 8
  store ptr %0, ptr %2, align 8, !tbaa !4
  %3 = load ptr, ptr %2, align 8, !tbaa !4
  %4 = getelementptr inbounds nuw %struct.lua_State, ptr %3, i32 0, i32 6
  %5 = load ptr, ptr %4, align 8, !tbaa !34
  %6 = getelementptr inbounds nuw %union.StackValue, ptr %5, i32 1
  store ptr %6, ptr %4, align 8, !tbaa !34
  %7 = load ptr, ptr %2, align 8, !tbaa !4
  %8 = getelementptr inbounds nuw %struct.lua_State, ptr %7, i32 0, i32 9
  %9 = load ptr, ptr %8, align 8, !tbaa !34
  %10 = load ptr, ptr %2, align 8, !tbaa !4
  %11 = getelementptr inbounds nuw %struct.lua_State, ptr %10, i32 0, i32 6
  %12 = load ptr, ptr %11, align 8, !tbaa !34
  %13 = ptrtoint ptr %9 to i64
  %14 = ptrtoint ptr %12 to i64
  %15 = sub i64 %13, %14
  %16 = sdiv exact i64 %15, 16
  %17 = icmp sle i64 %16, 1
  %18 = zext i1 %17 to i32
  %19 = icmp ne i32 %18, 0
  %20 = zext i1 %19 to i32
  %21 = sext i32 %20 to i64
  %22 = call i64 @llvm.expect.i64(i64 %21, i64 0)
  %23 = icmp ne i64 %22, 0
  br i1 %23, label %24, label %27

24:                                               ; preds = %1
  %25 = load ptr, ptr %2, align 8, !tbaa !4
  %26 = call i32 @luaD_growstack(ptr noundef %25, i32 noundef 1, i32 noundef 1)
  br label %28

27:                                               ; preds = %1
  br label %28

28:                                               ; preds = %27, %24
  ret void
}