; Function Attrs: nounwind uwtable
define hidden void @luaD_inctop(ptr noundef %0) local_unnamed_addr #0 {
  %2 = getelementptr inbounds nuw i8, ptr %0, i64 16
  %3 = load ptr, ptr %2, align 8, !tbaa !27
  %4 = getelementptr inbounds nuw i8, ptr %3, i64 16
  store ptr %4, ptr %2, align 8, !tbaa !27
  %5 = getelementptr inbounds nuw i8, ptr %0, i64 40
  %6 = load ptr, ptr %5, align 8, !tbaa !27
  %7 = ptrtoint ptr %6 to i64
  %8 = ptrtoint ptr %4 to i64
  %9 = sub i64 %7, %8
  %10 = icmp slt i64 %9, 17
  br i1 %10, label %11, label %13, !prof !42

11:                                               ; preds = %1
  %12 = tail call i32 @luaD_growstack(ptr noundef nonnull %0, i32 noundef 1, i32 noundef 1)
  br label %13

13:                                               ; preds = %1, %11
  ret void
}